target datalayout = "e-m:e-p270:32:32-p271:32:32-p272:64:64-i64:64-i128:128-f80:128-n8:16:32:64-S128"
target triple = "x86_64-pc-linux-gnu"

%struct.SDL_Mouse = type { ptr, ptr, ptr, ptr, ptr, ptr, ptr, ptr, ptr, ptr, ptr, ptr, ptr, ptr, i8, float, float, ptr, float, float, float, float, float, float, float, float, double, double, i8, i8, i8, i8, i8, i8, i8, i8, i64, i8, float, i8, float, i8, i32, i32, i8, i8, i8, i8, i8, i8, i8, i8, i8, ptr, i32, ptr, ptr, ptr, ptr, i8, ptr }
%struct.SDL_Rect = type { i32, i32, i32, i32 }
%union.SDL_Event = type { %struct.SDL_MouseWheelEvent, [72 x i8] }
%struct.SDL_MouseWheelEvent = type { i32, i32, i64, i32, i32, float, float, i32, float, float, i32, i32 }
%struct.SDL_Window = type { i32, ptr, ptr, i32, i32, i32, i32, i32, i32, i32, i32, float, float, i32, i32, i64, i64, float, i8, i8, i32, i32, %struct.SDL_Rect, %struct.SDL_Rect, %struct.SDL_Rect, i8, i8, i8, %struct.SDL_DisplayMode, %struct.SDL_DisplayMode, %struct.SDL_HDROutputProperties, float, ptr, i8, i8, i8, i8, i8, i8, i8, i8, i8, i32, i32, i32, i32, %struct.SDL_Rect, i32, i8, %struct.SDL_Rect, i32, %struct.SDL_Rect, ptr, ptr, i32, float, i32, i32, ptr, ptr, ptr, ptr, ptr, ptr, ptr, ptr, ptr }
%struct.SDL_DisplayMode = type { i32, i32, i32, i32, float, float, i32, i32, ptr }
%struct.SDL_HDROutputProperties = type { float, float }
%struct.SDL_CommonEvent = type { i32, i32, i64 }

@SDL_mouse = internal global %struct.SDL_Mouse zeroinitializer, align 8

; Function Attrs: nounwind uwtable
define hidden void @SDL_RedrawCursor() #0 {
  %1 = alloca ptr, align 8
  %2 = alloca ptr, align 8
  call void @llvm.lifetime.start.p0(i64 8, ptr %1) #7
  %3 = call ptr @SDL_GetMouse()
  store ptr %3, ptr %1, align 8
  call void @llvm.lifetime.start.p0(i64 8, ptr %2) #7
  %4 = load ptr, ptr %1, align 8
  %5 = getelementptr inbounds nuw %struct.SDL_Mouse, ptr %4, i32 0, i32 17
  %6 = load ptr, ptr %5, align 8
  %7 = icmp ne ptr %6, null
  br i1 %7, label %8, label %12

8:                                                ; preds = %0
  %9 = load ptr, ptr %1, align 8
  %10 = getelementptr inbounds nuw %struct.SDL_Mouse, ptr %9, i32 0, i32 58
  %11 = load ptr, ptr %10, align 8
  store ptr %11, ptr %2, align 8
  br label %16

12:                                               ; preds = %0
  %13 = load ptr, ptr %1, align 8
  %14 = getelementptr inbounds nuw %struct.SDL_Mouse, ptr %13, i32 0, i32 57
  %15 = load ptr, ptr %14, align 8
  store ptr %15, ptr %2, align 8
  br label %16

16:                                               ; preds = %12, %8
  %17 = load ptr, ptr %1, align 8
  %18 = getelementptr inbounds nuw %struct.SDL_Mouse, ptr %17, i32 0, i32 17
  %19 = load ptr, ptr %18, align 8
  %20 = icmp ne ptr %19, null
  br i1 %20, label %21, label %37

21:                                               ; preds = %16
  %22 = load ptr, ptr %1, align 8
  %23 = getelementptr inbounds nuw %struct.SDL_Mouse, ptr %22, i32 0, i32 59
  %24 = load i8, ptr %23, align 8, !range !3, !noundef !4
  %25 = trunc i8 %24 to i1
  br i1 %25, label %26, label %36

26:                                               ; preds = %21
  %27 = load ptr, ptr %1, align 8
  %28 = getelementptr inbounds nuw %struct.SDL_Mouse, ptr %27, i32 0, i32 29
  %29 = load i8, ptr %28, align 1, !range !3, !noundef !4
  %30 = trunc i8 %29 to i1
  br i1 %30, label %31, label %37

31:                                               ; preds = %26
  %32 = load ptr, ptr %1, align 8
  %33 = getelementptr inbounds nuw %struct.SDL_Mouse, ptr %32, i32 0, i32 31
  %34 = load i8, ptr %33, align 1, !range !3, !noundef !4
  %35 = trunc i8 %34 to i1
  br i1 %35, label %36, label %37

36:                                               ; preds = %31, %21
  store ptr null, ptr %2, align 8
  br label %37

37:                                               ; preds = %36, %31, %26, %16
  %38 = load ptr, ptr %1, align 8
  %39 = getelementptr inbounds nuw %struct.SDL_Mouse, ptr %38, i32 0, i32 2
  %40 = load ptr, ptr %39, align 8
  %41 = icmp ne ptr %40, null
  br i1 %41, label %42, label %48

42:                                               ; preds = %37
  %43 = load ptr, ptr %1, align 8
  %44 = getelementptr inbounds nuw %struct.SDL_Mouse, ptr %43, i32 0, i32 2
  %45 = load ptr, ptr %44, align 8
  %46 = load ptr, ptr %2, align 8
  %47 = call zeroext i1 %45(ptr noundef %46)
  br label %48

48:                                               ; preds = %42, %37
  call void @llvm.lifetime.end.p0(i64 8, ptr %2) #7
  call void @llvm.lifetime.end.p0(i64 8, ptr %1) #7
  ret void
}

; Function Attrs: nounwind uwtable
define hidden void @SDL_SetMouseFocus(ptr noundef %0) #0 {
  %2 = alloca ptr, align 8
  %3 = alloca ptr, align 8
  %4 = alloca i32, align 4
  store ptr %0, ptr %2, align 8
  call void @llvm.lifetime.start.p0(i64 8, ptr %3) #7
  %5 = call ptr @SDL_GetMouse()
  store ptr %5, ptr %3, align 8
  %6 = load ptr, ptr %3, align 8
  %7 = getelementptr inbounds nuw %struct.SDL_Mouse, ptr %6, i32 0, i32 17
  %8 = load ptr, ptr %7, align 8
  %9 = load ptr, ptr %2, align 8
  %10 = icmp eq ptr %8, %9
  br i1 %10, label %11, label %12

11:                                               ; preds = %1
  store i32 1, ptr %4, align 4
  br label %38

12:                                               ; preds = %1
  %13 = load ptr, ptr %3, align 8
  %14 = getelementptr inbounds nuw %struct.SDL_Mouse, ptr %13, i32 0, i32 17
  %15 = load ptr, ptr %14, align 8
  %16 = icmp ne ptr %15, null
  br i1 %16, label %17, label %22

17:                                               ; preds = %12
  %18 = load ptr, ptr %3, align 8
  %19 = getelementptr inbounds nuw %struct.SDL_Mouse, ptr %18, i32 0, i32 17
  %20 = load ptr, ptr %19, align 8
  %21 = call zeroext i1 @SDL_SendWindowEvent(ptr noundef %20, i32 noundef 525, i32 noundef 0, i32 noundef 0)
  br label %22

22:                                               ; preds = %17, %12
  %23 = load ptr, ptr %2, align 8
  %24 = load ptr, ptr %3, align 8
  %25 = getelementptr inbounds nuw %struct.SDL_Mouse, ptr %24, i32 0, i32 17
  store ptr %23, ptr %25, align 8
  %26 = load ptr, ptr %3, align 8
  %27 = getelementptr inbounds nuw %struct.SDL_Mouse, ptr %26, i32 0, i32 28
  store i8 0, ptr %27, align 8
  %28 = load ptr, ptr %3, align 8
  %29 = getelementptr inbounds nuw %struct.SDL_Mouse, ptr %28, i32 0, i32 17
  %30 = load ptr, ptr %29, align 8
  %31 = icmp ne ptr %30, null
  br i1 %31, label %32, label %37

32:                                               ; preds = %22
  %33 = load ptr, ptr %3, align 8
  %34 = getelementptr inbounds nuw %struct.SDL_Mouse, ptr %33, i32 0, i32 17
  %35 = load ptr, ptr %34, align 8
  %36 = call zeroext i1 @SDL_SendWindowEvent(ptr noundef %35, i32 noundef 524, i32 noundef 0, i32 noundef 0)
  br label %37

37:                                               ; preds = %32, %22
  call void @SDL_RedrawCursor()
  store i32 0, ptr %4, align 4
  br label %38

38:                                               ; preds = %37, %11
  call void @llvm.lifetime.end.p0(i64 8, ptr %3) #7
  %39 = load i32, ptr %4, align 4
  switch i32 %39, label %41 [
    i32 0, label %40
    i32 1, label %40
  ]

40:                                               ; preds = %38, %38
  ret void

41:                                               ; preds = %38
  unreachable
}

; Function Attrs: nounwind uwtable
define hidden ptr @SDL_GetMouse() #0 {
  ret ptr @SDL_mouse
}

; Function Attrs: nounwind uwtable
define hidden void @SDL_SendMouseWheel(i64 noundef %0, ptr noundef %1, i32 noundef %2, float noundef %3, float noundef %4, i32 noundef %5) #0 {
  %7 = alloca i64, align 8
  %8 = alloca ptr, align 8
  %9 = alloca i32, align 4
  %10 = alloca float, align 4
  %11 = alloca float, align 4
  %12 = alloca i32, align 4
  %13 = alloca ptr, align 8
  %14 = alloca i32, align 4
  %15 = alloca float, align 4
  %16 = alloca float, align 4
  %17 = alloca %union.SDL_Event, align 8
  store i64 %0, ptr %7, align 8
  store ptr %1, ptr %8, align 8
  store i32 %2, ptr %9, align 4
  store float %3, ptr %10, align 4
  store float %4, ptr %11, align 4
  store i32 %5, ptr %12, align 4
  call void @llvm.lifetime.start.p0(i64 8, ptr %13) #7
  %18 = call ptr @SDL_GetMouse()
  store ptr %18, ptr %13, align 8
  %19 = load ptr, ptr %8, align 8
  %20 = icmp ne ptr %19, null
  br i1 %20, label %21, label %23

21:                                               ; preds = %6
  %22 = load ptr, ptr %8, align 8
  call void @SDL_SetMouseFocus(ptr noundef %22)
  br label %23

23:                                               ; preds = %21, %6
  %24 = load float, ptr %10, align 4
  %25 = fcmp oeq float %24, 0.000000e+00
  br i1 %25, label %26, label %30

26:                                               ; preds = %23
  %27 = load float, ptr %11, align 4
  %28 = fcmp oeq float %27, 0.000000e+00
  br i1 %28, label %29, label %30

29:                                               ; preds = %26
  store i32 1, ptr %14, align 4
  br label %113

30:                                               ; preds = %26, %23
  %31 = call zeroext i1 @SDL_EventEnabled_REAL(i32 noundef 1027)
  br i1 %31, label %32, label %112

32:                                               ; preds = %30
  call void @llvm.lifetime.start.p0(i64 4, ptr %15) #7
  call void @llvm.lifetime.start.p0(i64 4, ptr %16) #7
  %33 = load ptr, ptr %13, align 8
  %34 = getelementptr inbounds nuw %struct.SDL_Mouse, ptr %33, i32 0, i32 29
  %35 = load i8, ptr %34, align 1, !range !3, !noundef !4
  %36 = trunc i8 %35 to i1
  br i1 %36, label %37, label %42

37:                                               ; preds = %32
  %38 = load ptr, ptr %13, align 8
  %39 = getelementptr inbounds nuw %struct.SDL_Mouse, ptr %38, i32 0, i32 34
  %40 = load i8, ptr %39, align 2, !range !3, !noundef !4
  %41 = trunc i8 %40 to i1
  br i1 %41, label %42, label %43

42:                                               ; preds = %37, %32
  store i32 0, ptr %9, align 4
  br label %43

43:                                               ; preds = %42, %37
  call void @llvm.lifetime.start.p0(i64 128, ptr %17) #7
  store i32 1027, ptr %17, align 8
  %44 = load i64, ptr %7, align 8
  %45 = getelementptr inbounds nuw %struct.SDL_CommonEvent, ptr %17, i32 0, i32 2
  store i64 %44, ptr %45, align 8
  %46 = load ptr, ptr %13, align 8
  %47 = getelementptr inbounds nuw %struct.SDL_Mouse, ptr %46, i32 0, i32 17
  %48 = load ptr, ptr %47, align 8
  %49 = icmp ne ptr %48, null
  br i1 %49, label %50, label %56

50:                                               ; preds = %43
  %51 = load ptr, ptr %13, align 8
  %52 = getelementptr inbounds nuw %struct.SDL_Mouse, ptr %51, i32 0, i32 17
  %53 = load ptr, ptr %52, align 8
  %54 = getelementptr inbounds nuw %struct.SDL_Window, ptr %53, i32 0, i32 0
  %55 = load i32, ptr %54, align 8
  br label %57

56:                                               ; preds = %43
  br label %57

57:                                               ; preds = %56, %50
  %58 = phi i32 [ %55, %50 ], [ 0, %56 ]
  %59 = getelementptr inbounds nuw %struct.SDL_MouseWheelEvent, ptr %17, i32 0, i32 3
  store i32 %58, ptr %59, align 8
  %60 = load i32, ptr %9, align 4
  %61 = getelementptr inbounds nuw %struct.SDL_MouseWheelEvent, ptr %17, i32 0, i32 4
  store i32 %60, ptr %61, align 4
  %62 = load i32, ptr %12, align 4
  %63 = getelementptr inbounds nuw %struct.SDL_MouseWheelEvent, ptr %17, i32 0, i32 7
  store i32 %62, ptr %63, align 8
  %64 = load ptr, ptr %13, align 8
  %65 = getelementptr inbounds nuw %struct.SDL_Mouse, ptr %64, i32 0, i32 18
  %66 = load float, ptr %65, align 8
  %67 = getelementptr inbounds nuw %struct.SDL_MouseWheelEvent, ptr %17, i32 0, i32 8
  store float %66, ptr %67, align 4
  %68 = load ptr, ptr %13, align 8
  %69 = getelementptr inbounds nuw %struct.SDL_Mouse, ptr %68, i32 0, i32 19
  %70 = load float, ptr %69, align 4
  %71 = getelementptr inbounds nuw %struct.SDL_MouseWheelEvent, ptr %17, i32 0, i32 9
  store float %70, ptr %71, align 8
  %72 = load ptr, ptr %13, align 8
  %73 = getelementptr inbounds nuw %struct.SDL_Mouse, ptr %72, i32 0, i32 24
  %74 = load float, ptr %73, align 8
  %75 = load float, ptr %10, align 4
  %76 = fadd float %74, %75
  %77 = call float @SDL_modff_REAL(float noundef %76, ptr noundef %15)
  %78 = load ptr, ptr %13, align 8
  %79 = getelementptr inbounds nuw %struct.SDL_Mouse, ptr %78, i32 0, i32 24
  store float %77, ptr %79, align 8
  %80 = load float, ptr %15, align 4
  %81 = fptosi float %80 to i32
  %82 = getelementptr inbounds nuw %struct.SDL_MouseWheelEvent, ptr %17, i32 0, i32 10
  store i32 %81, ptr %82, align 4
  %83 = load ptr, ptr %13, align 8
  %84 = getelementptr inbounds nuw %struct.SDL_Mouse, ptr %83, i32 0, i32 25
  %85 = load float, ptr %84, align 4
  %86 = load float, ptr %11, align 4
  %87 = fadd float %85, %86
  %88 = call float @SDL_modff_REAL(float noundef %87, ptr noundef %16)
  %89 = load ptr, ptr %13, align 8
  %90 = getelementptr inbounds nuw %struct.SDL_Mouse, ptr %89, i32 0, i32 25
  store float %88, ptr %90, align 4
  %91 = load float, ptr %16, align 4
  %92 = fptosi float %91 to i32
  %93 = getelementptr inbounds nuw %struct.SDL_MouseWheelEvent, ptr %17, i32 0, i32 11
  store i32 %92, ptr %93, align 8
  %94 = load ptr, ptr %13, align 8
  %95 = getelementptr inbounds nuw %struct.SDL_Mouse, ptr %94, i32 0, i32 14
  %96 = load i8, ptr %95, align 8
  %97 = zext i8 %96 to i32
  %98 = and i32 %97, 2
  %99 = icmp ne i32 %98, 0
  br i1 %99, label %100, label %105

100:                                              ; preds = %57
  %101 = load float, ptr %15, align 4
  %102 = getelementptr inbounds nuw %struct.SDL_MouseWheelEvent, ptr %17, i32 0, i32 5
  store float %101, ptr %102, align 8
  %103 = load float, ptr %16, align 4
  %104 = getelementptr inbounds nuw %struct.SDL_MouseWheelEvent, ptr %17, i32 0, i32 6
  store float %103, ptr %104, align 4
  br label %110

105:                                              ; preds = %57
  %106 = load float, ptr %10, align 4
  %107 = getelementptr inbounds nuw %struct.SDL_MouseWheelEvent, ptr %17, i32 0, i32 5
  store float %106, ptr %107, align 8
  %108 = load float, ptr %11, align 4
  %109 = getelementptr inbounds nuw %struct.SDL_MouseWheelEvent, ptr %17, i32 0, i32 6
  store float %108, ptr %109, align 4
  br label %110

110:                                              ; preds = %105, %100
  %111 = call zeroext i1 @SDL_PushEvent_REAL(ptr noundef %17)
  call void @llvm.lifetime.end.p0(i64 128, ptr %17) #7
  call void @llvm.lifetime.end.p0(i64 4, ptr %16) #7
  call void @llvm.lifetime.end.p0(i64 4, ptr %15) #7
  br label %112

112:                                              ; preds = %110, %30
  store i32 0, ptr %14, align 4
  br label %113

113:                                              ; preds = %112, %29
  call void @llvm.lifetime.end.p0(i64 8, ptr %13) #7
  %114 = load i32, ptr %14, align 4
  switch i32 %114, label %116 [
    i32 0, label %115
    i32 1, label %115
  ]

115:                                              ; preds = %113, %113
  ret void

116:                                              ; preds = %113
  unreachable
}