; Function Attrs: nounwind uwtable
define hidden void @SDL_SendMouseWheel(i64 noundef %0, ptr noundef %1, i32 noundef %2, float noundef %3, float noundef %4, i32 noundef %5) local_unnamed_addr #0 {
  %7 = alloca float, align 4
  %8 = alloca float, align 4
  %9 = alloca %union.SDL_Event, align 8
  %.not = icmp eq ptr %1, null
  br i1 %.not, label %SDL_SetMouseFocus.exit, label %10

10:                                               ; preds = %6
  %11 = load ptr, ptr getelementptr inbounds nuw (i8, ptr @SDL_mouse, i64 128), align 8
  %12 = icmp eq ptr %11, %1
  br i1 %12, label %SDL_SetMouseFocus.exit, label %13

13:                                               ; preds = %10
  %.not.i = icmp eq ptr %11, null
  br i1 %.not.i, label %16, label %14

14:                                               ; preds = %13
  %15 = tail call zeroext i1 @SDL_SendWindowEvent(ptr noundef nonnull %11, i32 noundef 525, i32 noundef 0, i32 noundef 0) #13
  br label %16

16:                                               ; preds = %13, %14
  store ptr %1, ptr getelementptr inbounds nuw (i8, ptr @SDL_mouse, i64 128), align 8
  store i8 0, ptr getelementptr inbounds nuw (i8, ptr @SDL_mouse, i64 184), align 8
  %17 = tail call zeroext i1 @SDL_SendWindowEvent(ptr noundef nonnull %1, i32 noundef 524, i32 noundef 0, i32 noundef 0) #13
  %.pr.i = load ptr, ptr getelementptr inbounds nuw (i8, ptr @SDL_mouse, i64 128), align 8
  %.not.i.i = icmp eq ptr %.pr.i, null
  %.val.i.i = load ptr, ptr getelementptr inbounds nuw (i8, ptr @SDL_mouse, i64 272), align 8
  %.val14.i.i = load ptr, ptr getelementptr inbounds nuw (i8, ptr @SDL_mouse, i64 280), align 8
  br i1 %.not.i.i, label %27, label %18

18:                                               ; preds = %16
  %19 = load i8, ptr getelementptr inbounds nuw (i8, ptr @SDL_mouse, i64 288), align 8, !range !3, !noundef !4
  %20 = trunc nuw i8 %19 to i1
  br i1 %20, label %21, label %26

21:                                               ; preds = %18
  %22 = load i8, ptr getelementptr inbounds nuw (i8, ptr @SDL_mouse, i64 185), align 1, !range !3, !noundef !4
  %23 = trunc nuw i8 %22 to i1
  %24 = load i8, ptr getelementptr inbounds nuw (i8, ptr @SDL_mouse, i64 187), align 1, !range !3
  %25 = trunc nuw i8 %24 to i1
  %or.cond.i.i = select i1 %23, i1 %25, i1 false
  br i1 %or.cond.i.i, label %26, label %27

26:                                               ; preds = %21, %18
  br label %27

27:                                               ; preds = %26, %21, %16
  %.1.i.i = phi ptr [ null, %26 ], [ %.val14.i.i, %21 ], [ %.val.i.i, %16 ]
  %28 = load ptr, ptr getelementptr inbounds nuw (i8, ptr @SDL_mouse, i64 16), align 8
  %.not12.i.i = icmp eq ptr %28, null
  br i1 %.not12.i.i, label %SDL_SetMouseFocus.exit, label %29

29:                                               ; preds = %27
  %30 = tail call zeroext i1 %28(ptr noundef %.1.i.i) #13
  br label %SDL_SetMouseFocus.exit

SDL_SetMouseFocus.exit:                           ; preds = %29, %27, %10, %6
  %31 = fcmp oeq float %3, 0.000000e+00
  %32 = fcmp oeq float %4, 0.000000e+00
  %or.cond = and i1 %31, %32
  br i1 %or.cond, label %71, label %33

33:                                               ; preds = %SDL_SetMouseFocus.exit
  %34 = tail call zeroext i1 @SDL_EventEnabled_REAL(i32 noundef 1027) #13
  br i1 %34, label %35, label %71

35:                                               ; preds = %33
  call void @llvm.lifetime.start.p0(i64 4, ptr nonnull %7) #13
  call void @llvm.lifetime.start.p0(i64 4, ptr nonnull %8) #13
  %36 = load i8, ptr getelementptr inbounds nuw (i8, ptr @SDL_mouse, i64 185), align 1, !range !3, !noundef !4
  %37 = trunc nuw i8 %36 to i1
  %.not26 = xor i1 %37, true
  %38 = load i8, ptr getelementptr inbounds nuw (i8, ptr @SDL_mouse, i64 190), align 2, !range !3
  %39 = trunc nuw i8 %38 to i1
  %or.cond28 = select i1 %.not26, i1 true, i1 %39
  %.0 = select i1 %or.cond28, i32 0, i32 %2
  call void @llvm.lifetime.start.p0(i64 128, ptr nonnull %9) #13
  store i32 1027, ptr %9, align 8
  %40 = getelementptr inbounds nuw i8, ptr %9, i64 8
  store i64 %0, ptr %40, align 8
  %41 = load ptr, ptr getelementptr inbounds nuw (i8, ptr @SDL_mouse, i64 128), align 8
  %.not24 = icmp eq ptr %41, null
  br i1 %.not24, label %44, label %42

42:                                               ; preds = %35
  %43 = load i32, ptr %41, align 8
  br label %44

44:                                               ; preds = %35, %42
  %45 = phi i32 [ %43, %42 ], [ 0, %35 ]
  %46 = getelementptr inbounds nuw i8, ptr %9, i64 16
  store i32 %45, ptr %46, align 8
  %47 = getelementptr inbounds nuw i8, ptr %9, i64 20
  store i32 %.0, ptr %47, align 4
  %48 = getelementptr inbounds nuw i8, ptr %9, i64 32
  store i32 %5, ptr %48, align 8
  %49 = load float, ptr getelementptr inbounds nuw (i8, ptr @SDL_mouse, i64 136), align 8
  %50 = getelementptr inbounds nuw i8, ptr %9, i64 36
  store float %49, ptr %50, align 4
  %51 = load float, ptr getelementptr inbounds nuw (i8, ptr @SDL_mouse, i64 140), align 4
  %52 = getelementptr inbounds nuw i8, ptr %9, i64 40
  store float %51, ptr %52, align 8
  %53 = load float, ptr getelementptr inbounds nuw (i8, ptr @SDL_mouse, i64 160), align 8
  %54 = fadd float %3, %53
  %55 = call float @SDL_modff_REAL(float noundef %54, ptr noundef nonnull %7) #13
  store float %55, ptr getelementptr inbounds nuw (i8, ptr @SDL_mouse, i64 160), align 8
  %56 = load float, ptr %7, align 4
  %57 = fptosi float %56 to i32
  %58 = getelementptr inbounds nuw i8, ptr %9, i64 44
  store i32 %57, ptr %58, align 4
  %59 = load float, ptr getelementptr inbounds nuw (i8, ptr @SDL_mouse, i64 164), align 4
  %60 = fadd float %4, %59
  %61 = call float @SDL_modff_REAL(float noundef %60, ptr noundef nonnull %8) #13
  store float %61, ptr getelementptr inbounds nuw (i8, ptr @SDL_mouse, i64 164), align 4
  %62 = load float, ptr %8, align 4
  %63 = fptosi float %62 to i32
  %64 = getelementptr inbounds nuw i8, ptr %9, i64 48
  store i32 %63, ptr %64, align 8
  %65 = load i8, ptr getelementptr inbounds nuw (i8, ptr @SDL_mouse, i64 112), align 8
  %66 = and i8 %65, 2
  %.not25 = icmp eq i8 %66, 0
  %67 = load float, ptr %7, align 4
  %.sink29 = select i1 %.not25, float %3, float %67
  %.sink = select i1 %.not25, float %4, float %62
  %68 = getelementptr inbounds nuw i8, ptr %9, i64 24
  store float %.sink29, ptr %68, align 8
  %69 = getelementptr inbounds nuw i8, ptr %9, i64 28
  store float %.sink, ptr %69, align 4
  %70 = call zeroext i1 @SDL_PushEvent_REAL(ptr noundef nonnull %9) #13
  call void @llvm.lifetime.end.p0(i64 128, ptr nonnull %9) #13
  call void @llvm.lifetime.end.p0(i64 4, ptr nonnull %8) #13
  call void @llvm.lifetime.end.p0(i64 4, ptr nonnull %7) #13
  br label %71

71:                                               ; preds = %33, %44, %SDL_SetMouseFocus.exit
  ret void
}